; Function Attrs: mustprogress uwtable
define hidden void @_ZN4cvc58internal6theory2uf15SymmetryBreaker4normENS0_12NodeTemplateILb0EEE(ptr dead_on_unwind noalias writable sret(%"class.cvc5::internal::NodeTemplate") align 8 %0, ptr noundef nonnull align 8 dereferenceable(776) %1, ptr noundef readonly captures(none) %2) local_unnamed_addr #3 align 2 personality ptr @__gxx_personality_v0 {
  %4 = alloca %"class.cvc5::internal::NodeTemplate", align 8
  %5 = alloca %"class.cvc5::internal::NodeTemplate.16", align 8
  %6 = alloca %"class.cvc5::internal::NodeTemplate.16", align 8
  call void @llvm.lifetime.start.p0(i64 8, ptr nonnull %4) #27
  %7 = load ptr, ptr %2, align 8, !tbaa !27
  store ptr %7, ptr %5, align 8, !tbaa !27
  call void @_ZNK4cvc58internal6EnvObj7rewriteENS0_12NodeTemplateILb0EEE(ptr dead_on_unwind nonnull writable sret(%"class.cvc5::internal::NodeTemplate") align 8 %4, ptr noundef nonnull align 8 dereferenceable(16) %1, ptr noundef nonnull %5)
  %8 = load ptr, ptr %4, align 8, !tbaa !9
  store ptr %8, ptr %6, align 8, !tbaa !27
  invoke void @_ZN4cvc58internal6theory2uf15SymmetryBreaker12normInternalENS0_12NodeTemplateILb0EEEm(ptr dead_on_unwind writable sret(%"class.cvc5::internal::NodeTemplate") align 8 %0, ptr noundef nonnull align 8 dereferenceable(776) %1, ptr noundef nonnull %6, i64 noundef 0)
          to label %9 unwind label %23

9:                                                ; preds = %3
  %10 = load ptr, ptr %4, align 8, !tbaa !9
  %11 = load i64, ptr %10, align 8
  %12 = and i64 %11, 1152920405095219200
  %.not.i.i = icmp eq i64 %12, 1152920405095219200
  br i1 %.not.i.i, label %_ZN4cvc58internal12NodeTemplateILb1EED2Ev.exit, label %13, !prof !24

13:                                               ; preds = %9
  %14 = add i64 %11, 1152920405095219200
  %15 = and i64 %14, 1152920405095219200
  %16 = and i64 %11, -1152920405095219201
  %17 = or disjoint i64 %15, %16
  store i64 %17, ptr %10, align 8
  %18 = icmp eq i64 %15, 0
  br i1 %18, label %19, label %_ZN4cvc58internal12NodeTemplateILb1EED2Ev.exit, !prof !24

19:                                               ; preds = %13
  invoke void @_ZN4cvc58internal4expr9NodeValue15markForDeletionEv(ptr noundef nonnull align 8 dereferenceable(24) %10)
          to label %_ZN4cvc58internal12NodeTemplateILb1EED2Ev.exit unwind label %20

20:                                               ; preds = %19
  %21 = landingpad { ptr, i32 }
          catch ptr null
  %22 = extractvalue { ptr, i32 } %21, 0
  call void @__clang_call_terminate(ptr %22) #29
  unreachable

_ZN4cvc58internal12NodeTemplateILb1EED2Ev.exit:   ; preds = %9, %13, %19
  call void @llvm.lifetime.end.p0(i64 8, ptr nonnull %4) #27
  ret void

23:                                               ; preds = %3
  %24 = landingpad { ptr, i32 }
          cleanup
  call void @_ZN4cvc58internal12NodeTemplateILb1EED2Ev(ptr noundef nonnull align 8 dereferenceable(8) %4) #27
  call void @llvm.lifetime.end.p0(i64 8, ptr nonnull %4) #27
  resume { ptr, i32 } %24
}